; Function Attrs: nounwind uwtable
define hidden noundef i32 @lexbor_mem_init(ptr noundef %0, i64 noundef %1) local_unnamed_addr #0 {
  %3 = icmp eq ptr %0, null
  br i1 %3, label %26, label %4

4:                                                ; preds = %2
  %5 = icmp eq i64 %1, 0
  br i1 %5, label %26, label %6

6:                                                ; preds = %4
  %.biased.i = add i64 %1, 7
  %7 = and i64 %.biased.i, -8
  %8 = getelementptr inbounds i8, ptr %0, i64 16
  store i64 %7, ptr %8, align 8
  %9 = tail call ptr @lexbor_calloc(i64 noundef 1, i64 noundef 40) #6
  %10 = icmp eq ptr %9, null
  br i1 %10, label %lexbor_mem_chunk_make.exit.thread, label %11

lexbor_mem_chunk_make.exit.thread:                ; preds = %6
  store ptr null, ptr %0, align 8
  br label %26

11:                                               ; preds = %6
  %12 = load i64, ptr %8, align 8
  %13 = icmp ugt i64 %7, %12
  %14 = xor i64 %7, -1
  %15 = icmp ugt i64 %12, %14
  %16 = select i1 %15, i64 0, i64 %12
  %spec.select.i.i = add i64 %16, %7
  %.sink.i.i = select i1 %13, i64 %spec.select.i.i, i64 %12
  %17 = getelementptr inbounds i8, ptr %9, i64 16
  store i64 %.sink.i.i, ptr %17, align 8
  %18 = getelementptr inbounds i8, ptr %9, i64 8
  store i64 0, ptr %18, align 8
  %19 = tail call ptr @lexbor_malloc(i64 noundef %.sink.i.i) #6
  store ptr %19, ptr %9, align 8
  %20 = icmp eq ptr %19, null
  br i1 %20, label %lexbor_mem_chunk_make.exit, label %lexbor_mem_chunk_make.exit.thread14

lexbor_mem_chunk_make.exit.thread14:              ; preds = %11
  store ptr %9, ptr %0, align 8
  br label %23

lexbor_mem_chunk_make.exit:                       ; preds = %11
  %21 = tail call ptr @lexbor_free(ptr noundef nonnull %9) #6
  store ptr %21, ptr %0, align 8
  %22 = icmp eq ptr %21, null
  br i1 %22, label %26, label %23

23:                                               ; preds = %lexbor_mem_chunk_make.exit.thread14, %lexbor_mem_chunk_make.exit
  %.0.i16 = phi ptr [ %9, %lexbor_mem_chunk_make.exit.thread14 ], [ %21, %lexbor_mem_chunk_make.exit ]
  %24 = getelementptr inbounds i8, ptr %0, i64 24
  store i64 1, ptr %24, align 8
  %25 = getelementptr inbounds i8, ptr %0, i64 8
  store ptr %.0.i16, ptr %25, align 8
  br label %26

26:                                               ; preds = %lexbor_mem_chunk_make.exit.thread, %lexbor_mem_chunk_make.exit, %4, %2, %23
  %.0 = phi i32 [ 0, %23 ], [ 3, %2 ], [ 9, %4 ], [ 2, %lexbor_mem_chunk_make.exit ], [ 2, %lexbor_mem_chunk_make.exit.thread ]
  ret i32 %.0
}